target datalayout = "e-m:e-p270:32:32-p271:32:32-p272:64:64-i64:64-i128:128-f80:128-n8:16:32:64-S128"
target triple = "x86_64-pc-linux-gnu"

%struct.re_pattern_buffer = type { ptr, i32, i32, i32, i32, i32, i32, i32, i32, i32, i32, i32, i32, i32, ptr, ptr, ptr, ptr, i32, i32, i32, i32, i64, i64, i32, ptr, ptr, [256 x i8], ptr, ptr, i64, i64, i64, ptr }

; Function Attrs: nounwind sspstrong uwtable
define dso_local void @onig_free(ptr noundef %0) #0 {
  %2 = alloca ptr, align 8
  store ptr %0, ptr %2, align 8, !tbaa !21
  %3 = load ptr, ptr %2, align 8, !tbaa !21
  %4 = icmp ne ptr %3, null
  br i1 %4, label %5, label %8

5:                                                ; preds = %1
  %6 = load ptr, ptr %2, align 8, !tbaa !21
  call void @onig_free_body(ptr noundef %6)
  %7 = load ptr, ptr %2, align 8, !tbaa !21
  call void @free(ptr noundef %7) #11
  br label %8

8:                                                ; preds = %5, %1
  ret void
}

; Function Attrs: nounwind sspstrong uwtable
define dso_local void @onig_free_body(ptr noundef %0) #0 {
  %2 = alloca ptr, align 8
  store ptr %0, ptr %2, align 8, !tbaa !21
  %3 = load ptr, ptr %2, align 8, !tbaa !21
  %4 = icmp ne ptr %3, null
  br i1 %4, label %5, label %26

5:                                                ; preds = %1
  %6 = load ptr, ptr %2, align 8, !tbaa !21
  %7 = getelementptr inbounds nuw %struct.re_pattern_buffer, ptr %6, i32 0, i32 0
  %8 = load ptr, ptr %7, align 8, !tbaa !23
  call void @free(ptr noundef %8) #11
  %9 = load ptr, ptr %2, align 8, !tbaa !21
  %10 = getelementptr inbounds nuw %struct.re_pattern_buffer, ptr %9, i32 0, i32 25
  %11 = load ptr, ptr %10, align 8, !tbaa !27
  call void @free(ptr noundef %11) #11
  %12 = load ptr, ptr %2, align 8, !tbaa !21
  %13 = getelementptr inbounds nuw %struct.re_pattern_buffer, ptr %12, i32 0, i32 28
  %14 = load ptr, ptr %13, align 8, !tbaa !28
  call void @free(ptr noundef %14) #11
  %15 = load ptr, ptr %2, align 8, !tbaa !21
  %16 = getelementptr inbounds nuw %struct.re_pattern_buffer, ptr %15, i32 0, i32 29
  %17 = load ptr, ptr %16, align 8, !tbaa !29
  call void @free(ptr noundef %17) #11
  %18 = load ptr, ptr %2, align 8, !tbaa !21
  %19 = getelementptr inbounds nuw %struct.re_pattern_buffer, ptr %18, i32 0, i32 14
  %20 = load ptr, ptr %19, align 8, !tbaa !30
  call void @free(ptr noundef %20) #11
  %21 = load ptr, ptr %2, align 8, !tbaa !21
  %22 = getelementptr inbounds nuw %struct.re_pattern_buffer, ptr %21, i32 0, i32 33
  %23 = load ptr, ptr %22, align 8, !tbaa !31
  call void @onig_free(ptr noundef %23)
  %24 = load ptr, ptr %2, align 8, !tbaa !21
  %25 = call i32 @onig_names_free(ptr noundef %24)
  br label %26

26:                                               ; preds = %5, %1
  ret void
}