; Function Attrs: nounwind sspstrong uwtable
define dso_local void @onig_free_body(ptr noundef %0) local_unnamed_addr #4 {
  %.not = icmp eq ptr %0, null
  br i1 %.not, label %16, label %2

2:                                                ; preds = %1
  %3 = load ptr, ptr %0, align 8, !tbaa !17
  tail call void @free(ptr noundef %3) #20
  %4 = getelementptr inbounds nuw i8, ptr %0, i64 136
  %5 = load ptr, ptr %4, align 8, !tbaa !23
  tail call void @free(ptr noundef %5) #20
  %6 = getelementptr inbounds nuw i8, ptr %0, i64 408
  %7 = load ptr, ptr %6, align 8, !tbaa !24
  tail call void @free(ptr noundef %7) #20
  %8 = getelementptr inbounds nuw i8, ptr %0, i64 416
  %9 = load ptr, ptr %8, align 8, !tbaa !25
  tail call void @free(ptr noundef %9) #20
  %10 = getelementptr inbounds nuw i8, ptr %0, i64 64
  %11 = load ptr, ptr %10, align 8, !tbaa !26
  tail call void @free(ptr noundef %11) #20
  %12 = getelementptr inbounds nuw i8, ptr %0, i64 448
  %13 = load ptr, ptr %12, align 8, !tbaa !27
  %.not.i = icmp eq ptr %13, null
  br i1 %.not.i, label %onig_free.exit, label %14

14:                                               ; preds = %2
  tail call void @onig_free_body(ptr noundef nonnull %13)
  tail call void @free(ptr noundef nonnull %13) #20
  br label %onig_free.exit

onig_free.exit:                                   ; preds = %2, %14
  %15 = tail call i32 @onig_names_free(ptr noundef nonnull %0) #20
  br label %16

16:                                               ; preds = %onig_free.exit, %1
  ret void
}